target datalayout = "e-m:e-p270:32:32-p271:32:32-p272:64:64-i64:64-i128:128-f80:128-n8:16:32:64-S128"
target triple = "x86_64-pc-linux-gnu"

%struct.PS_Table_FuncsRec_ = type { ptr, ptr, ptr, ptr }
%struct.PS_TableRec_ = type { ptr, i64, i64, i64, i32, ptr, ptr, ptr, %struct.PS_Table_FuncsRec_ }

@ps_table_funcs = hidden constant %struct.PS_Table_FuncsRec_ { ptr @ps_table_new, ptr @ps_table_done, ptr @ps_table_add, ptr @ps_table_release }, align 8

; Function Attrs: nounwind uwtable
define internal i32 @ps_table_new(ptr noundef %0, i32 noundef %1, ptr noundef %2) #0 {
  %4 = alloca ptr, align 8
  %5 = alloca i32, align 4
  %6 = alloca ptr, align 8
  %7 = alloca i32, align 4
  store ptr %0, ptr %4, align 8
  store i32 %1, ptr %5, align 4
  store ptr %2, ptr %6, align 8
  %8 = load ptr, ptr %6, align 8
  %9 = load ptr, ptr %4, align 8
  %10 = getelementptr inbounds %struct.PS_TableRec_, ptr %9, i32 0, i32 7
  store ptr %8, ptr %10, align 8
  %11 = load ptr, ptr %6, align 8
  %12 = load i32, ptr %5, align 4
  %13 = sext i32 %12 to i64
  %14 = call ptr @ft_mem_realloc(ptr noundef %11, i64 noundef 8, i64 noundef 0, i64 noundef %13, ptr noundef null, ptr noundef %7)
  %15 = load ptr, ptr %4, align 8
  %16 = getelementptr inbounds %struct.PS_TableRec_, ptr %15, i32 0, i32 5
  store ptr %14, ptr %16, align 8
  %17 = load i32, ptr %7, align 4
  %18 = icmp ne i32 %17, 0
  br i1 %18, label %28, label %19

19:                                               ; preds = %3
  %20 = load ptr, ptr %6, align 8
  %21 = load i32, ptr %5, align 4
  %22 = sext i32 %21 to i64
  %23 = call ptr @ft_mem_realloc(ptr noundef %20, i64 noundef 4, i64 noundef 0, i64 noundef %22, ptr noundef null, ptr noundef %7)
  %24 = load ptr, ptr %4, align 8
  %25 = getelementptr inbounds %struct.PS_TableRec_, ptr %24, i32 0, i32 6
  store ptr %23, ptr %25, align 8
  %26 = load i32, ptr %7, align 4
  %27 = icmp ne i32 %26, 0
  br i1 %27, label %28, label %29

28:                                               ; preds = %19, %3
  br label %43

29:                                               ; preds = %19
  %30 = load i32, ptr %5, align 4
  %31 = load ptr, ptr %4, align 8
  %32 = getelementptr inbounds %struct.PS_TableRec_, ptr %31, i32 0, i32 4
  store i32 %30, ptr %32, align 8
  %33 = load ptr, ptr %4, align 8
  %34 = getelementptr inbounds %struct.PS_TableRec_, ptr %33, i32 0, i32 3
  store i64 3735928559, ptr %34, align 8
  %35 = load ptr, ptr %4, align 8
  %36 = getelementptr inbounds %struct.PS_TableRec_, ptr %35, i32 0, i32 0
  store ptr null, ptr %36, align 8
  %37 = load ptr, ptr %4, align 8
  %38 = getelementptr inbounds %struct.PS_TableRec_, ptr %37, i32 0, i32 2
  store i64 0, ptr %38, align 8
  %39 = load ptr, ptr %4, align 8
  %40 = getelementptr inbounds %struct.PS_TableRec_, ptr %39, i32 0, i32 1
  store i64 0, ptr %40, align 8
  %41 = load ptr, ptr %4, align 8
  %42 = getelementptr inbounds %struct.PS_TableRec_, ptr %41, i32 0, i32 8
  call void @llvm.memcpy.p0.p0.i64(ptr align 8 %42, ptr align 8 @ps_table_funcs, i64 32, i1 false)
  br label %43

43:                                               ; preds = %29, %28
  %44 = load i32, ptr %7, align 4
  %45 = icmp ne i32 %44, 0
  br i1 %45, label %46, label %55

46:                                               ; preds = %43
  br label %47

47:                                               ; preds = %46
  %48 = load ptr, ptr %6, align 8
  %49 = load ptr, ptr %4, align 8
  %50 = getelementptr inbounds %struct.PS_TableRec_, ptr %49, i32 0, i32 5
  %51 = load ptr, ptr %50, align 8
  call void @ft_mem_free(ptr noundef %48, ptr noundef %51)
  %52 = load ptr, ptr %4, align 8
  %53 = getelementptr inbounds %struct.PS_TableRec_, ptr %52, i32 0, i32 5
  store ptr null, ptr %53, align 8
  br label %54

54:                                               ; preds = %47
  br label %55

55:                                               ; preds = %54, %43
  %56 = load i32, ptr %7, align 4
  ret i32 %56
}