; Function Attrs: nounwind uwtable
define internal i32 @ps_table_new(ptr noundef captures(none) initializes((40, 48), (56, 64)) %0, i32 noundef %1, ptr noundef %2) #0 {
  %4 = alloca i32, align 4
  %5 = getelementptr inbounds nuw i8, ptr %0, i64 56
  store ptr %2, ptr %5, align 8
  %6 = sext i32 %1 to i64
  %7 = call ptr @ft_mem_realloc(ptr noundef %2, i64 noundef 8, i64 noundef 0, i64 noundef %6, ptr noundef null, ptr noundef nonnull %4) #20
  %8 = getelementptr inbounds nuw i8, ptr %0, i64 40
  store ptr %7, ptr %8, align 8
  %9 = load i32, ptr %4, align 4
  %.not = icmp eq i32 %9, 0
  br i1 %.not, label %10, label %.thread

10:                                               ; preds = %3
  %11 = call ptr @ft_mem_realloc(ptr noundef %2, i64 noundef 4, i64 noundef 0, i64 noundef %6, ptr noundef null, ptr noundef nonnull %4) #20
  %12 = getelementptr inbounds nuw i8, ptr %0, i64 48
  store ptr %11, ptr %12, align 8
  %13 = load i32, ptr %4, align 4
  %.not17 = icmp eq i32 %13, 0
  br i1 %.not17, label %14, label %.thread

14:                                               ; preds = %10
  %15 = getelementptr inbounds nuw i8, ptr %0, i64 32
  store i32 %1, ptr %15, align 8
  %16 = getelementptr inbounds nuw i8, ptr %0, i64 24
  store i64 3735928559, ptr %16, align 8
  %17 = getelementptr inbounds nuw i8, ptr %0, i64 64
  call void @llvm.memset.p0.i64(ptr noundef nonnull align 8 dereferenceable(24) %0, i8 0, i64 24, i1 false)
  call void @llvm.memcpy.p0.p0.i64(ptr noundef nonnull align 8 dereferenceable(32) %17, ptr noundef nonnull align 8 dereferenceable(32) @ps_table_funcs, i64 32, i1 false)
  br label %19

.thread:                                          ; preds = %10, %3
  %18 = load ptr, ptr %8, align 8
  call void @ft_mem_free(ptr noundef %2, ptr noundef %18) #20
  store ptr null, ptr %8, align 8
  %.pre = load i32, ptr %4, align 4
  br label %19

19:                                               ; preds = %14, %.thread
  %20 = phi i32 [ %.pre, %.thread ], [ 0, %14 ]
  ret i32 %20
}